target datalayout = "e-m:e-p270:32:32-p271:32:32-p272:64:64-i64:64-i128:128-f80:128-n8:16:32:64-S128"
target triple = "x86_64-pc-linux-gnu"

%struct.stat = type { i64, i64, i64, i32, i32, i32, i32, i64, i64, i64, i64, %struct.timespec, %struct.timespec, %struct.timespec, [3 x i64] }
%struct.timespec = type { i64, i64 }

; Function Attrs: nounwind uwtable
define hidden i64 @evutil_fd_filesize(i32 noundef %0) #0 {
  %2 = alloca i64, align 8
  %3 = alloca i32, align 4
  %4 = alloca %struct.stat, align 8
  %5 = alloca i32, align 4
  store i32 %0, ptr %3, align 4
  call void @llvm.lifetime.start.p0(i64 144, ptr %4) #11
  %6 = load i32, ptr %3, align 4
  %7 = call i32 @fstat(i32 noundef %6, ptr noundef %4) #11
  %8 = icmp slt i32 %7, 0
  br i1 %8, label %9, label %10

9:                                                ; preds = %1
  store i64 -1, ptr %2, align 8
  store i32 1, ptr %5, align 4
  br label %13

10:                                               ; preds = %1
  %11 = getelementptr inbounds nuw %struct.stat, ptr %4, i32 0, i32 8
  %12 = load i64, ptr %11, align 8
  store i64 %12, ptr %2, align 8
  store i32 1, ptr %5, align 4
  br label %13

13:                                               ; preds = %10, %9
  call void @llvm.lifetime.end.p0(i64 144, ptr %4) #11
  %14 = load i64, ptr %2, align 8
  ret i64 %14
}