; Function Attrs: nofree nounwind uwtable
define hidden i64 @evutil_fd_filesize(i32 noundef %0) local_unnamed_addr #5 {
  %2 = alloca %struct.stat, align 8
  call void @llvm.lifetime.start.p0(i64 144, ptr nonnull %2) #30
  %3 = call i32 @fstat(i32 noundef %0, ptr noundef nonnull %2) #30
  %4 = icmp slt i32 %3, 0
  %5 = getelementptr inbounds nuw i8, ptr %2, i64 48
  %6 = load i64, ptr %5, align 8
  %.0 = select i1 %4, i64 -1, i64 %6
  call void @llvm.lifetime.end.p0(i64 144, ptr nonnull %2) #30
  ret i64 %.0
}